
 Start Length Name Class
 0001:00401000 000001254H _TEXT                  CODE
 0002:00403000 000000230H _DATA                  DATA
 0003:00403230 000000010H _BSS                   BSS
 0004:00000000 00000009CH _TLS                   TLS


Detailed map of segments
 0001:00000018 0000014F C=CODE    S=_TEXT    G=(none)   M=D:\DELPHI\CODEGEAR2009\RAD STUDIO\6.0\LIB\C0X32.OBJ ACBP=A9
 0001:00000168 00000F4F C=CODE    S=_TEXT    G=(none)   M=D:\ANJANI_TIWARI\DAY\PROGRAMS\B_TREE\DEBUG\FILE1.OBJ ACBP=A9
 0001:000010B8 00000001 C=CODE    S=_TEXT    G=(none)   M=D:\DELPHI\CODEGEAR2009\RAD STUDIO\6.0\LIB\CW32I.LIB|crtlst_i ACBP=A9
 0001:000010BC 00000001 C=CODE    S=_TEXT    G=(none)   M=D:\DELPHI\CODEGEAR2009\RAD STUDIO\6.0\LIB\CW32I.LIB|crtlst_l ACBP=A9
 0001:000010C0 000000A3 C=CODE    S=_TEXT    G=(none)   M=D:\DELPHI\CODEGEAR2009\RAD STUDIO\6.0\LIB\CW32I.LIB|xxv ACBP=A9
 0001:00001164 00000026 C=CODE    S=_TEXT    G=(none)   M=D:\DELPHI\CODEGEAR2009\RAD STUDIO\6.0\LIB\CW32I.LIB|setargv2 ACBP=A9
 0002:00000000 000000A8 C=DATA    S=_DATA    G=DGROUP   M=D:\DELPHI\CODEGEAR2009\RAD STUDIO\6.0\LIB\C0X32.OBJ ACBP=A9
 0002:000000A8 000000BC C=DATA    S=_DATA    G=DGROUP   M=D:\ANJANI_TIWARI\DAY\PROGRAMS\B_TREE\DEBUG\FILE1.OBJ ACBP=A9
 0002:00000164 000000C8 C=DATA    S=_DATA    G=DGROUP   M=D:\DELPHI\CODEGEAR2009\RAD STUDIO\6.0\LIB\CW32I.LIB|xxv ACBP=A9
 0002:00000214 00000004 C=DATA    S=_DATA    G=DGROUP   M=D:\DELPHI\CODEGEAR2009\RAD STUDIO\6.0\LIB\CW32I.LIB|fmode ACBP=A9
 0002:00000218 00000004 C=DATA    S=_DATA    G=DGROUP   M=D:\DELPHI\CODEGEAR2009\RAD STUDIO\6.0\LIB\CW32I.LIB|cfinfo ACBP=A9
 0002:0000021C 00000004 C=DATA    S=_DATA    G=DGROUP   M=D:\DELPHI\CODEGEAR2009\RAD STUDIO\6.0\LIB\CW32I.LIB|xinitcvt ACBP=A9
 0002:00000220 00000004 C=DATA    S=_DATA    G=DGROUP   M=D:\DELPHI\CODEGEAR2009\RAD STUDIO\6.0\LIB\CW32I.LIB|setargv2 ACBP=A9
 0002:00000224 00000004 C=DATA    S=_DATA    G=DGROUP   M=D:\DELPHI\CODEGEAR2009\RAD STUDIO\6.0\LIB\CW32I.LIB|wildptr ACBP=A9
 0002:00000228 00000004 C=DATA    S=_DATA    G=DGROUP   M=D:\DELPHI\CODEGEAR2009\RAD STUDIO\6.0\LIB\CW32I.LIB|wwildptr ACBP=A9
 0002:0000022C 00000004 C=DATA    S=_DATA    G=DGROUP   M=D:\DELPHI\CODEGEAR2009\RAD STUDIO\6.0\LIB\CW32I.LIB|xsetenvp ACBP=A9
 0003:00000000 00000008 C=BSS     S=_BSS     G=DGROUP   M=D:\DELPHI\CODEGEAR2009\RAD STUDIO\6.0\LIB\CW32I.LIB|xxv ACBP=A9
 0003:00000008 00000008 C=BSS     S=_BSS     G=DGROUP   M=D:\DELPHI\CODEGEAR2009\RAD STUDIO\6.0\LIB\CW32I.LIB|setargv2 ACBP=A9
 0004:00000000 0000009C C=TLS     S=_TLS     G=DGROUP   M=D:\DELPHI\CODEGEAR2009\RAD STUDIO\6.0\LIB\CW32I.LIB|xxv ACBP=A9

 Address Publics by Name

 0003:00000000  B197_2
 0003:00000008  B219_2
 0001:000010B8  C181_0
 0001:000010BC  C185_0
 0001:000010C0  C197_0
 0001:000010C0  C197_4
 0001:00000018  C1_0
 0001:00001164  C219_0
 0001:00001164  C219_3
 0001:00001184  C219_4
 0001:00000168  C2_0
 0002:00000164  D197_1
 0002:00000000  D1_1
 0002:00000214  D203_0
 0002:00000218  D205_0
 0002:0000021C  D213_0
 0002:00000220  D219_1
 0002:00000224  D221_0
 0002:00000228  D223_0
 0002:0000022C  D227_0
 0002:000000A8  D2_1
 0001:00000158  Sysinit::__linkproc__ __fastcall GetTls()
 0004:00000000  T197_3
 0003:00000000  __DestructorCountPtr
 0001:000010EC  __ExceptInit
 0002:00000200  __ExceptVarsSize
 0001:00000071  __GetExceptDLLinfo
 0001:0000113C  __GetExceptDLLinfoInternal
 0002:000000A0  __PackageInfoTable
 0002:0000008F  __TLS_index
 0002:00000093  __TLS_index4
 0002:0000009C  ___CPPdebugHook
 0002:0000009C  ___CPPdebugHook_segment
 0002:00000164  ___CPPexceptionList
 0001:000010BC  ___CRTL_VCLLIB_Linkage
 0001:000010B8  ___CRTL_VCL_Init
 0002:00000180  ___ExceptStaticXbuff
 0001:00000158  ___System__GetTls
 0003:00000008  ___dll_argc
 0003:0000000C  ___dll_argv
 0002:00000168  ___exceptFlags
 0002:0000017C  ___exceptMemAllocVars
 0002:00000178  ___exceptStaticBuffP
 0002:00000081  ___isDLL
 0002:00000048  ___isGUI
 0002:00000080  ___isVCLPackage
 0002:00000174  ___throwExceptionName
 0002:0000016C  ___throwFileName
 0002:00000170  ___throwLineNumber
 0002:0000008E  ___useDynamicTLS
 0004:00000000  ___xxInfo
 0001:00000018  __acrtused
 0002:00000224  __argv_expand_ptr
 0002:00000218  __fileinfo
 0002:00000214  __fmode
 0001:0000007E  __getHInstance
 0002:00000097  __hInstance
 0001:00000076  __isDLL
 0002:00000220  __setargv__
 0002:0000022C  __setenvp__
 0002:0000021C  __turboFloat
 0002:00000228  __wargv_expand_ptr
 0001:000001C0  _createBtNode
 0001:00000168  _createNode
 0001:00000C04  _deleteBtNode
 0001:00000206  _growNodeArray
 0001:00000521  _insertBtNode
 0001:00000F34  _main
 0001:0000098C  _maxNode
 0002:000000AC  _maxValue
 0001:00000B26  _rotateLeft
 0001:00000A3B  _rotateRight
 0001:0000095D  _shrinkNodeArray
 0001:00000242  _splitNodes
 0002:000000A8  _treeDegree

 Address Publics by Value

 0001:00000018  __acrtused
 0001:00000018  C1_0
 0001:00000071  __GetExceptDLLinfo
 0001:00000076  __isDLL
 0001:0000007E  __getHInstance
 0001:00000158  ___System__GetTls
 0001:00000158  Sysinit::__linkproc__ __fastcall GetTls()
 0001:00000168  _createNode
 0001:00000168  C2_0
 0001:000001C0  _createBtNode
 0001:00000206  _growNodeArray
 0001:00000242  _splitNodes
 0001:00000521  _insertBtNode
 0001:0000095D  _shrinkNodeArray
 0001:0000098C  _maxNode
 0001:00000A3B  _rotateRight
 0001:00000B26  _rotateLeft
 0001:00000C04  _deleteBtNode
 0001:00000F34  _main
 0001:000010B8  C181_0
 0001:000010B8  ___CRTL_VCL_Init
 0001:000010BC  ___CRTL_VCLLIB_Linkage
 0001:000010BC  C185_0
 0001:000010C0  C197_0
 0001:000010C0  C197_4
 0001:000010EC  __ExceptInit
 0001:0000113C  __GetExceptDLLinfoInternal
 0001:00001164  C219_3
 0001:00001164  C219_0
 0001:00001184  C219_4
 0002:00000000  D1_1
 0002:00000048  ___isGUI
 0002:00000080  ___isVCLPackage
 0002:00000081  ___isDLL
 0002:0000008E  ___useDynamicTLS
 0002:0000008F  __TLS_index
 0002:00000093  __TLS_index4
 0002:00000097  __hInstance
 0002:0000009C  ___CPPdebugHook_segment
 0002:0000009C  ___CPPdebugHook
 0002:000000A0  __PackageInfoTable
 0002:000000A8  D2_1
 0002:000000A8  _treeDegree
 0002:000000AC  _maxValue
 0002:00000164  ___CPPexceptionList
 0002:00000164  D197_1
 0002:00000168  ___exceptFlags
 0002:0000016C  ___throwFileName
 0002:00000170  ___throwLineNumber
 0002:00000174  ___throwExceptionName
 0002:00000178  ___exceptStaticBuffP
 0002:0000017C  ___exceptMemAllocVars
 0002:00000180  ___ExceptStaticXbuff
 0002:00000200  __ExceptVarsSize
 0002:00000214  __fmode
 0002:00000214  D203_0
 0002:00000218  __fileinfo
 0002:00000218  D205_0
 0002:0000021C  D213_0
 0002:0000021C  __turboFloat
 0002:00000220  __setargv__
 0002:00000220  D219_1
 0002:00000224  __argv_expand_ptr
 0002:00000224  D221_0
 0002:00000228  D223_0
 0002:00000228  __wargv_expand_ptr
 0002:0000022C  D227_0
 0002:0000022C  __setenvp__
 0003:00000000  B197_2
 0003:00000000  __DestructorCountPtr
 0003:00000008  B219_2
 0003:00000008  ___dll_argc
 0003:0000000C  ___dll_argv
 0004:00000000  ___xxInfo
 0004:00000000  T197_3
